target datalayout = "e-m:e-p270:32:32-p271:32:32-p272:64:64-i64:64-i128:128-f80:128-n8:16:32:64-S128"
target triple = "x86_64-pc-linux-gnu"

%struct._exr_decode_pipeline = type { i64, ptr, i16, i16, i32, ptr, %struct.exr_chunk_info_t, i32, i32, i64, ptr, ptr, i64, ptr, i64, ptr, i64, ptr, i64, ptr, i64, ptr, i64, ptr, ptr, ptr, ptr, ptr, ptr, [5 x %struct.exr_coding_channel_info_t] }
%struct.exr_chunk_info_t = type { i32, i32, i32, i32, i32, i8, i8, i8, i8, i64, i64, i64, i64, i64 }
%struct.exr_coding_channel_info_t = type { ptr, i32, i32, i32, i32, i8, i8, i16, i16, i16, i32, i32, %union.anon }
%union.anon = type { ptr }
%struct._priv_exr_context_t = type { i8, i8, i8, i8, i8, i8, i8, i8, %struct.exr_attr_string_t, %struct.exr_attr_string_t, ptr, ptr, ptr, ptr, ptr, ptr, ptr, ptr, i32, i32, i32, i32, i32, float, ptr, ptr, ptr, i64, ptr, ptr, i64, i32, i32, i32, i32, %struct._priv_exr_part_t, ptr, ptr, %struct.exr_attribute_list, %union.pthread_mutex_t, i8, i8, [2 x i8], i32 }
%struct.exr_attr_string_t = type { i32, i32, ptr }
%struct._priv_exr_part_t = type { i32, i32, %struct.exr_attribute_list, ptr, ptr, ptr, ptr, ptr, ptr, ptr, ptr, ptr, ptr, ptr, ptr, ptr, ptr, %struct.exr_attr_box2i_t, %struct.exr_attr_box2i_t, i32, i32, i32, float, i32, i32, ptr, ptr, ptr, ptr, i64, i16, i16, i32, i64, i64 }
%struct.exr_attr_box2i_t = type { %struct.exr_attr_v2i_t, %struct.exr_attr_v2i_t }
%struct.exr_attr_v2i_t = type { i32, i32 }
%struct.exr_attribute_list = type { i32, i32, ptr, ptr }
%union.pthread_mutex_t = type { %struct.__pthread_mutex_s }
%struct.__pthread_mutex_s = type { i32, i32, i32, i32, i32, i16, i16, %struct.__pthread_internal_list }
%struct.__pthread_internal_list = type { ptr, ptr }

; Function Attrs: nounwind uwtable
define i32 @exr_decoding_destroy(ptr noundef %0, ptr noundef %1) #0 {
  %3 = alloca i32, align 4
  %4 = alloca ptr, align 8
  %5 = alloca ptr, align 8
  %6 = alloca %struct._exr_decode_pipeline, align 8
  store ptr %0, ptr %4, align 8, !tbaa !3
  store ptr %1, ptr %5, align 8, !tbaa !11
  %7 = load ptr, ptr %4, align 8, !tbaa !3
  %8 = icmp ne ptr %7, null
  br i1 %8, label %10, label %9

9:                                                ; preds = %2
  store i32 2, ptr %3, align 4
  br label %99

10:                                               ; preds = %2
  %11 = load ptr, ptr %5, align 8, !tbaa !11
  %12 = icmp ne ptr %11, null
  br i1 %12, label %13, label %98

13:                                               ; preds = %10
  call void @llvm.lifetime.start.p0(i64 504, ptr %6) #6
  call void @llvm.memset.p0.i64(ptr align 8 %6, i8 0, i64 504, i1 false)
  %14 = load ptr, ptr %5, align 8, !tbaa !11
  %15 = getelementptr inbounds nuw %struct._exr_decode_pipeline, ptr %14, i32 0, i32 1
  %16 = load ptr, ptr %15, align 8, !tbaa !52
  %17 = load ptr, ptr %5, align 8, !tbaa !11
  %18 = getelementptr inbounds nuw %struct._exr_decode_pipeline, ptr %17, i32 0, i32 29
  %19 = getelementptr inbounds [5 x %struct.exr_coding_channel_info_t], ptr %18, i64 0, i64 0
  %20 = icmp ne ptr %16, %19
  br i1 %20, label %21, label %28

21:                                               ; preds = %13
  %22 = load ptr, ptr %4, align 8, !tbaa !3
  %23 = getelementptr inbounds nuw %struct._priv_exr_context_t, ptr %22, i32 0, i32 17
  %24 = load ptr, ptr %23, align 8, !tbaa !96
  %25 = load ptr, ptr %5, align 8, !tbaa !11
  %26 = getelementptr inbounds nuw %struct._exr_decode_pipeline, ptr %25, i32 0, i32 1
  %27 = load ptr, ptr %26, align 8, !tbaa !52
  call void %24(ptr noundef %27)
  br label %28

28:                                               ; preds = %21, %13
  %29 = load ptr, ptr %5, align 8, !tbaa !11
  %30 = getelementptr inbounds nuw %struct._exr_decode_pipeline, ptr %29, i32 0, i32 13
  %31 = load ptr, ptr %30, align 8, !tbaa !78
  %32 = load ptr, ptr %5, align 8, !tbaa !11
  %33 = getelementptr inbounds nuw %struct._exr_decode_pipeline, ptr %32, i32 0, i32 11
  %34 = load ptr, ptr %33, align 8, !tbaa !79
  %35 = icmp eq ptr %31, %34
  br i1 %35, label %36, label %44

36:                                               ; preds = %28
  %37 = load ptr, ptr %5, align 8, !tbaa !11
  %38 = getelementptr inbounds nuw %struct._exr_decode_pipeline, ptr %37, i32 0, i32 14
  %39 = load i64, ptr %38, align 8, !tbaa !80
  %40 = icmp eq i64 %39, 0
  br i1 %40, label %41, label %44

41:                                               ; preds = %36
  %42 = load ptr, ptr %5, align 8, !tbaa !11
  %43 = getelementptr inbounds nuw %struct._exr_decode_pipeline, ptr %42, i32 0, i32 13
  store ptr null, ptr %43, align 8, !tbaa !78
  br label %44

44:                                               ; preds = %41, %36, %28
  %45 = load ptr, ptr %5, align 8, !tbaa !11
  %46 = getelementptr inbounds nuw %struct._exr_decode_pipeline, ptr %45, i32 0, i32 17
  %47 = load ptr, ptr %46, align 8, !tbaa !85
  %48 = load ptr, ptr %5, align 8, !tbaa !11
  %49 = getelementptr inbounds nuw %struct._exr_decode_pipeline, ptr %48, i32 0, i32 15
  %50 = load ptr, ptr %49, align 8, !tbaa !83
  %51 = icmp eq ptr %47, %50
  br i1 %51, label %52, label %60

52:                                               ; preds = %44
  %53 = load ptr, ptr %5, align 8, !tbaa !11
  %54 = getelementptr inbounds nuw %struct._exr_decode_pipeline, ptr %53, i32 0, i32 18
  %55 = load i64, ptr %54, align 8, !tbaa !87
  %56 = icmp eq i64 %55, 0
  br i1 %56, label %57, label %60

57:                                               ; preds = %52
  %58 = load ptr, ptr %5, align 8, !tbaa !11
  %59 = getelementptr inbounds nuw %struct._exr_decode_pipeline, ptr %58, i32 0, i32 17
  store ptr null, ptr %59, align 8, !tbaa !85
  br label %60

60:                                               ; preds = %57, %52, %44
  %61 = load ptr, ptr %5, align 8, !tbaa !11
  %62 = load ptr, ptr %5, align 8, !tbaa !11
  %63 = getelementptr inbounds nuw %struct._exr_decode_pipeline, ptr %62, i32 0, i32 11
  %64 = load ptr, ptr %5, align 8, !tbaa !11
  %65 = getelementptr inbounds nuw %struct._exr_decode_pipeline, ptr %64, i32 0, i32 12
  %66 = call i32 @internal_decode_free_buffer(ptr noundef %61, i32 noundef 0, ptr noundef %63, ptr noundef %65)
  %67 = load ptr, ptr %5, align 8, !tbaa !11
  %68 = load ptr, ptr %5, align 8, !tbaa !11
  %69 = getelementptr inbounds nuw %struct._exr_decode_pipeline, ptr %68, i32 0, i32 13
  %70 = load ptr, ptr %5, align 8, !tbaa !11
  %71 = getelementptr inbounds nuw %struct._exr_decode_pipeline, ptr %70, i32 0, i32 14
  %72 = call i32 @internal_decode_free_buffer(ptr noundef %67, i32 noundef 1, ptr noundef %69, ptr noundef %71)
  %73 = load ptr, ptr %5, align 8, !tbaa !11
  %74 = load ptr, ptr %5, align 8, !tbaa !11
  %75 = getelementptr inbounds nuw %struct._exr_decode_pipeline, ptr %74, i32 0, i32 19
  %76 = load ptr, ptr %5, align 8, !tbaa !11
  %77 = getelementptr inbounds nuw %struct._exr_decode_pipeline, ptr %76, i32 0, i32 20
  %78 = call i32 @internal_decode_free_buffer(ptr noundef %73, i32 noundef 3, ptr noundef %75, ptr noundef %77)
  %79 = load ptr, ptr %5, align 8, !tbaa !11
  %80 = load ptr, ptr %5, align 8, !tbaa !11
  %81 = getelementptr inbounds nuw %struct._exr_decode_pipeline, ptr %80, i32 0, i32 21
  %82 = load ptr, ptr %5, align 8, !tbaa !11
  %83 = getelementptr inbounds nuw %struct._exr_decode_pipeline, ptr %82, i32 0, i32 22
  %84 = call i32 @internal_decode_free_buffer(ptr noundef %79, i32 noundef 4, ptr noundef %81, ptr noundef %83)
  %85 = load ptr, ptr %5, align 8, !tbaa !11
  %86 = load ptr, ptr %5, align 8, !tbaa !11
  %87 = getelementptr inbounds nuw %struct._exr_decode_pipeline, ptr %86, i32 0, i32 17
  %88 = load ptr, ptr %5, align 8, !tbaa !11
  %89 = getelementptr inbounds nuw %struct._exr_decode_pipeline, ptr %88, i32 0, i32 18
  %90 = call i32 @internal_decode_free_buffer(ptr noundef %85, i32 noundef 6, ptr noundef %87, ptr noundef %89)
  %91 = load ptr, ptr %5, align 8, !tbaa !11
  %92 = load ptr, ptr %5, align 8, !tbaa !11
  %93 = getelementptr inbounds nuw %struct._exr_decode_pipeline, ptr %92, i32 0, i32 15
  %94 = load ptr, ptr %5, align 8, !tbaa !11
  %95 = getelementptr inbounds nuw %struct._exr_decode_pipeline, ptr %94, i32 0, i32 16
  %96 = call i32 @internal_decode_free_buffer(ptr noundef %91, i32 noundef 5, ptr noundef %93, ptr noundef %95)
  %97 = load ptr, ptr %5, align 8, !tbaa !11
  call void @llvm.memcpy.p0.p0.i64(ptr align 8 %97, ptr align 8 %6, i64 504, i1 false), !tbaa.struct !31
  call void @llvm.lifetime.end.p0(i64 504, ptr %6) #6
  br label %98

98:                                               ; preds = %60, %10
  store i32 0, ptr %3, align 4
  br label %99

99:                                               ; preds = %98, %9
  %100 = load i32, ptr %3, align 4
  ret i32 %100
}