; Function Attrs: nounwind uwtable
define range(i32 0, 3) i32 @exr_decoding_destroy(ptr noundef readonly %0, ptr noundef %1) local_unnamed_addr #0 {
  %.not = icmp eq ptr %0, null
  br i1 %.not, label %48, label %3

3:                                                ; preds = %2
  %.not36 = icmp eq ptr %1, null
  br i1 %.not36, label %48, label %4

4:                                                ; preds = %3
  %5 = getelementptr inbounds nuw i8, ptr %1, i64 8
  %6 = load ptr, ptr %5, align 8, !tbaa !44
  %7 = getelementptr inbounds nuw i8, ptr %1, i64 264
  %.not37 = icmp eq ptr %6, %7
  br i1 %.not37, label %11, label %8

8:                                                ; preds = %4
  %9 = getelementptr inbounds nuw i8, ptr %0, i64 96
  %10 = load ptr, ptr %9, align 8, !tbaa !88
  tail call void %10(ptr noundef %6) #5
  br label %11

11:                                               ; preds = %8, %4
  %12 = getelementptr inbounds nuw i8, ptr %1, i64 136
  %13 = load ptr, ptr %12, align 8, !tbaa !70
  %14 = getelementptr inbounds nuw i8, ptr %1, i64 120
  %15 = load ptr, ptr %14, align 8, !tbaa !71
  %16 = icmp eq ptr %13, %15
  br i1 %16, label %17, label %22

17:                                               ; preds = %11
  %18 = getelementptr inbounds nuw i8, ptr %1, i64 144
  %19 = load i64, ptr %18, align 8, !tbaa !72
  %20 = icmp eq i64 %19, 0
  br i1 %20, label %21, label %22

21:                                               ; preds = %17
  store ptr null, ptr %12, align 8, !tbaa !70
  br label %22

22:                                               ; preds = %21, %17, %11
  %23 = getelementptr inbounds nuw i8, ptr %1, i64 168
  %24 = load ptr, ptr %23, align 8, !tbaa !77
  %25 = getelementptr inbounds nuw i8, ptr %1, i64 152
  %26 = load ptr, ptr %25, align 8, !tbaa !75
  %27 = icmp eq ptr %24, %26
  br i1 %27, label %28, label %33

28:                                               ; preds = %22
  %29 = getelementptr inbounds nuw i8, ptr %1, i64 176
  %30 = load i64, ptr %29, align 8, !tbaa !79
  %31 = icmp eq i64 %30, 0
  br i1 %31, label %32, label %33

32:                                               ; preds = %28
  store ptr null, ptr %23, align 8, !tbaa !77
  br label %33

33:                                               ; preds = %32, %28, %22
  %34 = getelementptr inbounds nuw i8, ptr %1, i64 128
  %35 = tail call i32 @internal_decode_free_buffer(ptr noundef nonnull %1, i32 noundef 0, ptr noundef nonnull %14, ptr noundef nonnull %34) #5
  %36 = getelementptr inbounds nuw i8, ptr %1, i64 144
  %37 = tail call i32 @internal_decode_free_buffer(ptr noundef nonnull %1, i32 noundef 1, ptr noundef nonnull %12, ptr noundef nonnull %36) #5
  %38 = getelementptr inbounds nuw i8, ptr %1, i64 184
  %39 = getelementptr inbounds nuw i8, ptr %1, i64 192
  %40 = tail call i32 @internal_decode_free_buffer(ptr noundef nonnull %1, i32 noundef 3, ptr noundef nonnull %38, ptr noundef nonnull %39) #5
  %41 = getelementptr inbounds nuw i8, ptr %1, i64 200
  %42 = getelementptr inbounds nuw i8, ptr %1, i64 208
  %43 = tail call i32 @internal_decode_free_buffer(ptr noundef nonnull %1, i32 noundef 4, ptr noundef nonnull %41, ptr noundef nonnull %42) #5
  %44 = getelementptr inbounds nuw i8, ptr %1, i64 176
  %45 = tail call i32 @internal_decode_free_buffer(ptr noundef nonnull %1, i32 noundef 6, ptr noundef nonnull %23, ptr noundef nonnull %44) #5
  %46 = getelementptr inbounds nuw i8, ptr %1, i64 160
  %47 = tail call i32 @internal_decode_free_buffer(ptr noundef nonnull %1, i32 noundef 5, ptr noundef nonnull %25, ptr noundef nonnull %46) #5
  tail call void @llvm.memset.p0.i64(ptr noundef nonnull align 8 dereferenceable(504) %1, i8 0, i64 504, i1 false)
  br label %48

48:                                               ; preds = %3, %33, %2
  %.0 = phi i32 [ 2, %2 ], [ 0, %33 ], [ 0, %3 ]
  ret i32 %.0
}